; Function Attrs: mustprogress uwtable
define hidden noundef zeroext i1 @_ZN6spacer26lemma_array_eq_generalizer11is_array_eqER11ast_managerP4expr(ptr nonnull readnone align 8 captures(none) %0, ptr noundef nonnull align 8 dereferenceable(976) %1, ptr noundef readonly captures(none) %2) local_unnamed_addr #3 align 2 {
  %4 = alloca %class.array_util, align 8
  call void @llvm.lifetime.start.p0(i64 16, ptr nonnull %4) #20
  call void @_ZN10array_utilC1ER11ast_manager(ptr noundef nonnull align 8 dereferenceable(16) %4, ptr noundef nonnull align 8 dereferenceable(976) %1)
  %5 = getelementptr inbounds nuw i8, ptr %2, i64 4
  %6 = load i32, ptr %5, align 4
  %7 = and i32 %6, 65535
  %8 = icmp eq i32 %7, 0
  br i1 %8, label %9, label %_ZNK17array_recognizers8is_arrayEP4expr.exit5

9:                                                ; preds = %3
  %10 = getelementptr inbounds nuw i8, ptr %2, i64 16
  %11 = load ptr, ptr %10, align 8, !tbaa !212
  %12 = getelementptr inbounds nuw i8, ptr %11, i64 24
  %13 = load ptr, ptr %12, align 8, !tbaa !216
  %.not.i.i.i.i.i = icmp eq ptr %13, null
  br i1 %.not.i.i.i.i.i, label %_ZNK17array_recognizers8is_arrayEP4expr.exit5, label %_ZNK11ast_manager5is_eqEPK4expr.exit.i

_ZNK11ast_manager5is_eqEPK4expr.exit.i:           ; preds = %9
  %14 = load i32, ptr %13, align 8, !tbaa !219
  %15 = icmp eq i32 %14, 0
  %16 = getelementptr inbounds nuw i8, ptr %13, i64 4
  %17 = load i32, ptr %16, align 4
  %18 = icmp eq i32 %17, 2
  %19 = select i1 %15, i1 %18, i1 false
  br i1 %19, label %20, label %_ZNK17array_recognizers8is_arrayEP4expr.exit5

20:                                               ; preds = %_ZNK11ast_manager5is_eqEPK4expr.exit.i
  %21 = getelementptr inbounds nuw i8, ptr %2, i64 24
  %22 = load i32, ptr %21, align 8, !tbaa !223
  %23 = icmp eq i32 %22, 2
  br i1 %23, label %24, label %_ZNK17array_recognizers8is_arrayEP4expr.exit5

24:                                               ; preds = %20
  %25 = getelementptr inbounds nuw i8, ptr %2, i64 32
  %26 = load ptr, ptr %25, align 8, !tbaa !35
  %27 = getelementptr inbounds nuw i8, ptr %2, i64 40
  %28 = load ptr, ptr %27, align 8, !tbaa !35
  %29 = getelementptr inbounds nuw i8, ptr %26, i64 4
  %30 = load i32, ptr %29, align 4
  %31 = and i32 %30, 65535
  %32 = icmp eq i32 %31, 0
  br i1 %32, label %33, label %_ZNK17array_recognizers8is_arrayEP4expr.exit5

33:                                               ; preds = %24
  %34 = getelementptr inbounds nuw i8, ptr %26, i64 16
  %35 = load ptr, ptr %34, align 8, !tbaa !212
  %36 = getelementptr inbounds nuw i8, ptr %35, i64 24
  %37 = load ptr, ptr %36, align 8, !tbaa !216
  %38 = icmp eq ptr %37, null
  br i1 %38, label %_Z11is_uninterpPK4expr.exit.thread, label %_Z11is_uninterpPK4expr.exit

_Z11is_uninterpPK4expr.exit:                      ; preds = %33
  %39 = load i32, ptr %37, align 8, !tbaa !219
  %40 = icmp eq i32 %39, -1
  br i1 %40, label %_Z11is_uninterpPK4expr.exit.thread, label %_ZNK17array_recognizers8is_arrayEP4expr.exit5

_Z11is_uninterpPK4expr.exit.thread:               ; preds = %33, %_Z11is_uninterpPK4expr.exit
  %41 = getelementptr inbounds nuw i8, ptr %28, i64 4
  %42 = load i32, ptr %41, align 4
  %43 = and i32 %42, 65535
  %44 = icmp eq i32 %43, 0
  br i1 %44, label %45, label %_ZNK17array_recognizers8is_arrayEP4expr.exit5

45:                                               ; preds = %_Z11is_uninterpPK4expr.exit.thread
  %46 = getelementptr inbounds nuw i8, ptr %28, i64 16
  %47 = load ptr, ptr %46, align 8, !tbaa !212
  %48 = getelementptr inbounds nuw i8, ptr %47, i64 24
  %49 = load ptr, ptr %48, align 8, !tbaa !216
  %50 = icmp eq ptr %49, null
  br i1 %50, label %_Z11is_uninterpPK4expr.exit3.thread, label %_Z11is_uninterpPK4expr.exit3

_Z11is_uninterpPK4expr.exit3:                     ; preds = %45
  %51 = load i32, ptr %49, align 8, !tbaa !219
  %52 = icmp eq i32 %51, -1
  br i1 %52, label %_Z11is_uninterpPK4expr.exit3.thread, label %_ZNK17array_recognizers8is_arrayEP4expr.exit5

_Z11is_uninterpPK4expr.exit3.thread:              ; preds = %45, %_Z11is_uninterpPK4expr.exit3
  %53 = call noundef ptr @_ZNK4expr8get_sortEv(ptr noundef nonnull align 4 dereferenceable(16) %26)
  %54 = getelementptr inbounds nuw i8, ptr %53, i64 24
  %55 = load ptr, ptr %54, align 8, !tbaa !216
  %56 = icmp eq ptr %55, null
  br i1 %56, label %_ZNK17array_recognizers8is_arrayEP4expr.exit5, label %_ZNK4decl13get_family_idEv.exit.thread.i.i.i.i

_ZNK4decl13get_family_idEv.exit.thread.i.i.i.i:   ; preds = %_Z11is_uninterpPK4expr.exit3.thread
  %57 = load i32, ptr %4, align 8, !tbaa !224
  %58 = load i32, ptr %55, align 8, !tbaa !219
  %59 = icmp eq i32 %58, %57
  br i1 %59, label %_ZNK17array_recognizers8is_arrayEP4expr.exit, label %_ZNK17array_recognizers8is_arrayEP4expr.exit5

_ZNK17array_recognizers8is_arrayEP4expr.exit:     ; preds = %_ZNK4decl13get_family_idEv.exit.thread.i.i.i.i
  %60 = getelementptr inbounds nuw i8, ptr %55, i64 4
  %61 = load i32, ptr %60, align 4, !tbaa !226
  %62 = icmp eq i32 %61, 0
  br i1 %62, label %63, label %_ZNK17array_recognizers8is_arrayEP4expr.exit5

63:                                               ; preds = %_ZNK17array_recognizers8is_arrayEP4expr.exit
  %64 = call noundef ptr @_ZNK4expr8get_sortEv(ptr noundef nonnull align 4 dereferenceable(16) %28)
  %65 = getelementptr inbounds nuw i8, ptr %64, i64 24
  %66 = load ptr, ptr %65, align 8, !tbaa !216
  %67 = icmp eq ptr %66, null
  br i1 %67, label %_ZNK17array_recognizers8is_arrayEP4expr.exit5, label %_ZNK4decl13get_family_idEv.exit.thread.i.i.i.i4

_ZNK4decl13get_family_idEv.exit.thread.i.i.i.i4:  ; preds = %63
  %68 = load i32, ptr %4, align 8, !tbaa !224
  %69 = load i32, ptr %66, align 8, !tbaa !219
  %70 = icmp eq i32 %69, %68
  br i1 %70, label %71, label %_ZNK17array_recognizers8is_arrayEP4expr.exit5

71:                                               ; preds = %_ZNK4decl13get_family_idEv.exit.thread.i.i.i.i4
  %72 = getelementptr inbounds nuw i8, ptr %66, i64 4
  %73 = load i32, ptr %72, align 4, !tbaa !226
  %74 = icmp eq i32 %73, 0
  br label %_ZNK17array_recognizers8is_arrayEP4expr.exit5

_ZNK17array_recognizers8is_arrayEP4expr.exit5:    ; preds = %_Z11is_uninterpPK4expr.exit3.thread, %_ZNK4decl13get_family_idEv.exit.thread.i.i.i.i, %_Z11is_uninterpPK4expr.exit.thread, %24, %9, %3, %_ZNK11ast_manager5is_eqEPK4expr.exit.i, %20, %71, %_ZNK4decl13get_family_idEv.exit.thread.i.i.i.i4, %63, %_ZNK17array_recognizers8is_arrayEP4expr.exit, %_Z11is_uninterpPK4expr.exit3, %_Z11is_uninterpPK4expr.exit
  %75 = phi i1 [ false, %_ZNK17array_recognizers8is_arrayEP4expr.exit ], [ false, %_Z11is_uninterpPK4expr.exit3 ], [ false, %_Z11is_uninterpPK4expr.exit ], [ false, %_ZNK4decl13get_family_idEv.exit.thread.i.i.i.i4 ], [ %74, %71 ], [ false, %63 ], [ false, %20 ], [ false, %_ZNK11ast_manager5is_eqEPK4expr.exit.i ], [ false, %3 ], [ false, %9 ], [ false, %24 ], [ false, %_Z11is_uninterpPK4expr.exit.thread ], [ false, %_ZNK4decl13get_family_idEv.exit.thread.i.i.i.i ], [ false, %_Z11is_uninterpPK4expr.exit3.thread ]
  call void @llvm.lifetime.end.p0(i64 16, ptr nonnull %4) #20
  ret i1 %75
}